; Function Attrs: nounwind uwtable
define i32 @Abc_NtkClauseTop(ptr noundef %0, ptr noundef readonly captures(none) %1, ptr noundef captures(none) initializes((4, 8)) %2) local_unnamed_addr #0 {
  %4 = getelementptr inbounds nuw i8, ptr %2, i64 4
  store i32 0, ptr %4, align 4
  %5 = getelementptr i8, ptr %1, i64 4
  %.val13 = load i32, ptr %5, align 4
  %6 = icmp sgt i32 %.val13, 0
  br i1 %6, label %.lr.ph, label %.critedge

.lr.ph:                                           ; preds = %3
  %7 = getelementptr i8, ptr %1, i64 8
  %.phi.trans.insert.i = getelementptr inbounds nuw i8, ptr %2, i64 8
  br label %8

8:                                                ; preds = %.lr.ph, %Vec_IntPush.exit
  %indvars.iv = phi i64 [ 0, %.lr.ph ], [ %indvars.iv.next, %Vec_IntPush.exit ]
  %.val12 = load ptr, ptr %7, align 8
  %9 = getelementptr inbounds nuw ptr, ptr %.val12, i64 %indvars.iv
  %10 = load ptr, ptr %9, align 8
  %11 = ptrtoint ptr %10 to i64
  %12 = and i64 %11, -2
  %13 = inttoptr i64 %12 to ptr
  %14 = getelementptr inbounds nuw i8, ptr %13, i64 64
  %15 = load ptr, ptr %14, align 8
  %16 = ptrtoint ptr %15 to i64
  %17 = trunc i64 %16 to i32
  %18 = trunc i64 %11 to i32
  %19 = and i32 %18, 1
  %20 = shl nsw i32 %17, 1
  %21 = or disjoint i32 %20, %19
  %22 = load i32, ptr %4, align 4
  %23 = load i32, ptr %2, align 8
  %24 = icmp eq i32 %22, %23
  br i1 %24, label %25, label %.Vec_IntGrow.exit10_crit_edge.i

.Vec_IntGrow.exit10_crit_edge.i:                  ; preds = %8
  %.pre.i = load ptr, ptr %.phi.trans.insert.i, align 8
  br label %Vec_IntPush.exit

25:                                               ; preds = %8
  %26 = icmp slt i32 %22, 16
  br i1 %26, label %27, label %34

27:                                               ; preds = %25
  %28 = load ptr, ptr %.phi.trans.insert.i, align 8
  %.not9.i.i = icmp eq ptr %28, null
  br i1 %.not9.i.i, label %31, label %29

29:                                               ; preds = %27
  %30 = tail call dereferenceable_or_null(64) ptr @realloc(ptr noundef nonnull %28, i64 noundef 64) #13
  br label %Vec_IntGrow.exit.i

31:                                               ; preds = %27
  %32 = tail call noalias dereferenceable_or_null(64) ptr @malloc(i64 noundef 64) #12
  br label %Vec_IntGrow.exit.i

Vec_IntGrow.exit.i:                               ; preds = %31, %29
  %33 = phi ptr [ %30, %29 ], [ %32, %31 ]
  store ptr %33, ptr %.phi.trans.insert.i, align 8
  store i32 16, ptr %2, align 8
  br label %Vec_IntPush.exit

34:                                               ; preds = %25
  %35 = shl nuw nsw i32 %22, 1
  %36 = load ptr, ptr %.phi.trans.insert.i, align 8
  %.not9.i9.i = icmp eq ptr %36, null
  %37 = zext nneg i32 %35 to i64
  %38 = shl nuw nsw i64 %37, 2
  br i1 %.not9.i9.i, label %41, label %39

39:                                               ; preds = %34
  %40 = tail call ptr @realloc(ptr noundef nonnull %36, i64 noundef %38) #13
  br label %43

41:                                               ; preds = %34
  %42 = tail call noalias ptr @malloc(i64 noundef %38) #12
  br label %43

43:                                               ; preds = %41, %39
  %44 = phi ptr [ %40, %39 ], [ %42, %41 ]
  store ptr %44, ptr %.phi.trans.insert.i, align 8
  store i32 %35, ptr %2, align 8
  br label %Vec_IntPush.exit

Vec_IntPush.exit:                                 ; preds = %.Vec_IntGrow.exit10_crit_edge.i, %Vec_IntGrow.exit.i, %43
  %45 = phi ptr [ %.pre.i, %.Vec_IntGrow.exit10_crit_edge.i ], [ %44, %43 ], [ %33, %Vec_IntGrow.exit.i ]
  %46 = load i32, ptr %4, align 4
  %47 = add nsw i32 %46, 1
  store i32 %47, ptr %4, align 4
  %48 = sext i32 %46 to i64
  %49 = getelementptr inbounds i32, ptr %45, i64 %48
  store i32 %21, ptr %49, align 4
  %indvars.iv.next = add nuw nsw i64 %indvars.iv, 1
  %.val = load i32, ptr %5, align 4
  %50 = sext i32 %.val to i64
  %51 = icmp slt i64 %indvars.iv.next, %50
  br i1 %51, label %8, label %.critedge.loopexit, !llvm.loop !10

.critedge.loopexit:                               ; preds = %Vec_IntPush.exit
  %.pre = load i32, ptr %4, align 4
  %52 = sext i32 %.pre to i64
  br label %.critedge

.critedge:                                        ; preds = %.critedge.loopexit, %3
  %53 = phi i64 [ %52, %.critedge.loopexit ], [ 0, %3 ]
  %54 = getelementptr inbounds nuw i8, ptr %2, i64 8
  %55 = load ptr, ptr %54, align 8
  %56 = getelementptr inbounds i32, ptr %55, i64 %53
  %57 = tail call i32 @sat_solver_addclause(ptr noundef %0, ptr noundef %55, ptr noundef %56) #11
  ret i32 %57
}